target datalayout = "e-m:e-p270:32:32-p271:32:32-p272:64:64-i64:64-i128:128-f80:128-n8:16:32:64-S128"
target triple = "x86_64-pc-linux-gnu"

%struct.tm = type { i32, i32, i32, i32, i32, i32, i32, i32, i32, i64, ptr }

@H5O_init_g = external global i8, align 1
@H5_libterm_g = external global i8, align 1
@.str.9 = private unnamed_addr constant [25 x i8] c"%04d%02d%02d%02d%02d%02d\00", align 1

; Function Attrs: nounwind uwtable
define internal i32 @H5O__mtime_encode(ptr noundef %0, i1 noundef zeroext %1, i64 noundef %2, ptr noundef %3, ptr noundef %4) #0 {
  %6 = alloca ptr, align 8
  %7 = alloca i8, align 1
  %8 = alloca i64, align 8
  %9 = alloca ptr, align 8
  %10 = alloca ptr, align 8
  %11 = alloca ptr, align 8
  %12 = alloca ptr, align 8
  store ptr %0, ptr %6, align 8, !tbaa !3
  %13 = zext i1 %1 to i8
  store i8 %13, ptr %7, align 1, !tbaa !21
  store i64 %2, ptr %8, align 8, !tbaa !14
  store ptr %3, ptr %9, align 8, !tbaa !16
  store ptr %4, ptr %10, align 8, !tbaa !20
  call void @llvm.lifetime.start.p0(i64 8, ptr %11) #7
  %14 = load ptr, ptr %10, align 8, !tbaa !20
  store ptr %14, ptr %11, align 8, !tbaa !18
  call void @llvm.lifetime.start.p0(i64 8, ptr %12) #7
  %15 = load i8, ptr @H5O_init_g, align 1, !tbaa !21, !range !23, !noundef !24
  %16 = trunc i8 %15 to i1
  br i1 %16, label %21, label %17

17:                                               ; preds = %5
  %18 = load i8, ptr @H5_libterm_g, align 1, !tbaa !21, !range !23, !noundef !24
  %19 = trunc i8 %18 to i1
  %20 = xor i1 %19, true
  br label %21

21:                                               ; preds = %17, %5
  %22 = phi i1 [ true, %5 ], [ %20, %17 ]
  %23 = xor i1 %22, true
  %24 = xor i1 %23, true
  %25 = zext i1 %24 to i32
  %26 = sext i32 %25 to i64
  %27 = call i64 @llvm.expect.i64(i64 %26, i64 1)
  %28 = icmp ne i64 %27, 0
  br i1 %28, label %29, label %55

29:                                               ; preds = %21
  %30 = load ptr, ptr %11, align 8, !tbaa !18
  %31 = call ptr @gmtime(ptr noundef %30) #7
  store ptr %31, ptr %12, align 8, !tbaa !40
  %32 = load ptr, ptr %9, align 8, !tbaa !16
  %33 = load i64, ptr %8, align 8, !tbaa !14
  %34 = load ptr, ptr %12, align 8, !tbaa !40
  %35 = getelementptr inbounds nuw %struct.tm, ptr %34, i32 0, i32 5
  %36 = load i32, ptr %35, align 4, !tbaa !32
  %37 = add nsw i32 1900, %36
  %38 = load ptr, ptr %12, align 8, !tbaa !40
  %39 = getelementptr inbounds nuw %struct.tm, ptr %38, i32 0, i32 4
  %40 = load i32, ptr %39, align 8, !tbaa !34
  %41 = add nsw i32 1, %40
  %42 = load ptr, ptr %12, align 8, !tbaa !40
  %43 = getelementptr inbounds nuw %struct.tm, ptr %42, i32 0, i32 3
  %44 = load i32, ptr %43, align 4, !tbaa !35
  %45 = load ptr, ptr %12, align 8, !tbaa !40
  %46 = getelementptr inbounds nuw %struct.tm, ptr %45, i32 0, i32 2
  %47 = load i32, ptr %46, align 8, !tbaa !36
  %48 = load ptr, ptr %12, align 8, !tbaa !40
  %49 = getelementptr inbounds nuw %struct.tm, ptr %48, i32 0, i32 1
  %50 = load i32, ptr %49, align 4, !tbaa !37
  %51 = load ptr, ptr %12, align 8, !tbaa !40
  %52 = getelementptr inbounds nuw %struct.tm, ptr %51, i32 0, i32 0
  %53 = load i32, ptr %52, align 8, !tbaa !38
  %54 = call i32 (ptr, i64, ptr, ...) @snprintf(ptr noundef %32, i64 noundef %33, ptr noundef @.str.9, i32 noundef %37, i32 noundef %41, i32 noundef %44, i32 noundef %47, i32 noundef %50, i32 noundef %53) #7
  br label %55

55:                                               ; preds = %29, %21
  call void @llvm.lifetime.end.p0(i64 8, ptr %12) #7
  call void @llvm.lifetime.end.p0(i64 8, ptr %11) #7
  ret i32 0
}