; Function Attrs: nounwind uwtable
define internal noundef i32 @H5O__mtime_encode(ptr readnone captures(none) %0, i1 zeroext %1, i64 noundef %2, ptr noundef writeonly captures(none) %3, ptr noundef %4) #0 {
  %6 = load i8, ptr @H5O_init_g, align 1, !tbaa !3, !range !7, !noundef !8
  %7 = trunc nuw i8 %6 to i1
  %8 = load i8, ptr @H5_libterm_g, align 1, !range !7
  %9 = trunc nuw i8 %8 to i1
  %10 = xor i1 %9, true
  %11 = select i1 %7, i1 true, i1 %10
  br i1 %11, label %12, label %28, !prof !9

12:                                               ; preds = %5
  %13 = tail call ptr @gmtime(ptr noundef %4) #9
  %14 = getelementptr inbounds nuw i8, ptr %13, i64 20
  %15 = load i32, ptr %14, align 4, !tbaa !20
  %16 = add nsw i32 %15, 1900
  %17 = getelementptr inbounds nuw i8, ptr %13, i64 16
  %18 = load i32, ptr %17, align 8, !tbaa !24
  %19 = add nsw i32 %18, 1
  %20 = getelementptr inbounds nuw i8, ptr %13, i64 12
  %21 = load i32, ptr %20, align 4, !tbaa !25
  %22 = getelementptr inbounds nuw i8, ptr %13, i64 8
  %23 = load i32, ptr %22, align 8, !tbaa !26
  %24 = getelementptr inbounds nuw i8, ptr %13, i64 4
  %25 = load i32, ptr %24, align 4, !tbaa !27
  %26 = load i32, ptr %13, align 8, !tbaa !28
  %27 = tail call i32 (ptr, i64, ptr, ...) @snprintf(ptr noundef %3, i64 noundef %2, ptr noundef nonnull @.str.9, i32 noundef %16, i32 noundef %19, i32 noundef %21, i32 noundef %23, i32 noundef %25, i32 noundef %26) #9
  br label %28

28:                                               ; preds = %12, %5
  ret i32 0
}